; Function Attrs: mustprogress nounwind uwtable
define hidden void @_ZN14GenerateOopMap17do_interpretationEv(ptr noundef nonnull align 8 dereferenceable(176) %0) local_unnamed_addr #0 align 2 {
  %2 = getelementptr inbounds i8, ptr %0, i64 152
  %3 = getelementptr inbounds i8, ptr %0, i64 66
  %4 = getelementptr inbounds i8, ptr %0, i64 48
  %5 = getelementptr inbounds i8, ptr %0, i64 108
  %6 = getelementptr inbounds i8, ptr %0, i64 96
  %.pre = load i8, ptr %4, align 8
  br label %7

7:                                                ; preds = %42, %1
  %8 = phi i8 [ %43, %42 ], [ %.pre, %1 ]
  store i8 0, ptr %2, align 8
  store i8 1, ptr %3, align 2
  %9 = trunc i8 %8 to i1
  br i1 %9, label %11, label %10

10:                                               ; preds = %7
  tail call void @_ZN14GenerateOopMap17init_basic_blocksEv(ptr noundef nonnull align 8 dereferenceable(176) %0)
  %.pre8 = load i8, ptr %4, align 8
  br label %11

11:                                               ; preds = %10, %7
  %12 = phi i8 [ %.pre8, %10 ], [ %8, %7 ]
  %13 = trunc i8 %12 to i1
  br i1 %13, label %15, label %14

14:                                               ; preds = %11
  tail call void @_ZN14GenerateOopMap24setup_method_entry_stateEv(ptr noundef nonnull align 8 dereferenceable(176) %0)
  %.pre9 = load i8, ptr %4, align 8
  br label %15

15:                                               ; preds = %14, %11
  %16 = phi i8 [ %.pre9, %14 ], [ %12, %11 ]
  %17 = trunc i8 %16 to i1
  br i1 %17, label %_ZN14GenerateOopMap10interp_allEv.exit, label %18

18:                                               ; preds = %15
  %.pre.i = load i32, ptr %5, align 4
  br label %19

19:                                               ; preds = %.critedge2.i, %18
  %20 = phi i32 [ %.pre.i, %18 ], [ %33, %.critedge2.i ]
  %21 = load i8, ptr %4, align 8
  %22 = trunc i8 %21 to i1
  %23 = icmp slt i32 %20, 1
  %or.cond.not.i = select i1 %22, i1 true, i1 %23
  br i1 %or.cond.not.i, label %_ZN14GenerateOopMap10interp_allEv.exit, label %.lr.ph

.lr.ph.i:                                         ; preds = %32
  %24 = load i8, ptr %4, align 8
  %25 = trunc i8 %24 to i1
  br i1 %25, label %.critedge2.i, label %.lr.ph, !llvm.loop !26

.lr.ph:                                           ; preds = %19, %.lr.ph.i
  %.113.i2 = phi i1 [ %.2.i, %.lr.ph.i ], [ false, %19 ]
  %indvars.iv.i1 = phi i64 [ %indvars.iv.next.i, %.lr.ph.i ], [ 0, %19 ]
  %26 = phi i32 [ %33, %.lr.ph.i ], [ %20, %19 ]
  %27 = load ptr, ptr %6, align 8
  %28 = getelementptr inbounds %class.BasicBlock, ptr %27, i64 %indvars.iv.i1
  %29 = load i8, ptr %28, align 8
  %30 = trunc i8 %29 to i1
  br i1 %30, label %31, label %32

31:                                               ; preds = %.lr.ph
  store i8 0, ptr %28, align 8
  tail call void @_ZN14GenerateOopMap9interp_bbEP10BasicBlock(ptr noundef nonnull align 8 dereferenceable(176) %0, ptr noundef nonnull %28)
  %.pre18.i = load i32, ptr %5, align 4
  br label %32

32:                                               ; preds = %31, %.lr.ph
  %33 = phi i32 [ %.pre18.i, %31 ], [ %26, %.lr.ph ]
  %.2.i = phi i1 [ true, %31 ], [ %.113.i2, %.lr.ph ]
  %indvars.iv.next.i = add nuw nsw i64 %indvars.iv.i1, 1
  %34 = sext i32 %33 to i64
  %35 = icmp slt i64 %indvars.iv.next.i, %34
  br i1 %35, label %.lr.ph.i, label %.critedge2.i, !llvm.loop !26

.critedge2.i:                                     ; preds = %.lr.ph.i, %32
  br i1 %.2.i, label %19, label %.critedge2.i._ZN14GenerateOopMap10interp_allEv.exit.loopexit_crit_edge

.critedge2.i._ZN14GenerateOopMap10interp_allEv.exit.loopexit_crit_edge: ; preds = %.critedge2.i
  %.pre10.pre = load i8, ptr %4, align 8
  br label %_ZN14GenerateOopMap10interp_allEv.exit

_ZN14GenerateOopMap10interp_allEv.exit:           ; preds = %19, %.critedge2.i._ZN14GenerateOopMap10interp_allEv.exit.loopexit_crit_edge, %15
  %36 = phi i8 [ %16, %15 ], [ %.pre10.pre, %.critedge2.i._ZN14GenerateOopMap10interp_allEv.exit.loopexit_crit_edge ], [ %21, %19 ]
  %37 = trunc i8 %36 to i1
  br i1 %37, label %39, label %38

38:                                               ; preds = %_ZN14GenerateOopMap10interp_allEv.exit
  tail call void @_ZN14GenerateOopMap24rewrite_refval_conflictsEv(ptr noundef nonnull align 8 dereferenceable(176) %0)
  br label %39

39:                                               ; preds = %38, %_ZN14GenerateOopMap10interp_allEv.exit
  %40 = load i8, ptr %2, align 8
  %41 = trunc i8 %40 to i1
  br i1 %41, label %42, label %.critedge

42:                                               ; preds = %39
  %43 = load i8, ptr %4, align 8
  %44 = trunc i8 %43 to i1
  br i1 %44, label %.critedge, label %7, !llvm.loop !27

.critedge:                                        ; preds = %39, %42
  ret void
}